target datalayout = "e-m:e-p270:32:32-p271:32:32-p272:64:64-i64:64-i128:128-f80:128-n8:16:32:64-S128"
target triple = "x86_64-pc-linux-gnu"

%struct.block_q5_0 = type { i16, [4 x i8], [16 x i8] }
%union.anon.10 = type { float }
%union.anon.11 = type { i32 }

; Function Attrs: inlinehint nounwind uwtable
define internal float @fp32_from_bits(i32 noundef %0) #3 {
  %2 = alloca i32, align 4
  %3 = alloca %union.anon.11, align 4
  store i32 %0, ptr %2, align 4, !tbaa !11
  call void @llvm.lifetime.start.p0(i64 4, ptr %3) #10
  %4 = load i32, ptr %2, align 4, !tbaa !11
  store i32 %4, ptr %3, align 4, !tbaa !20
  %5 = load float, ptr %3, align 4, !tbaa !20
  call void @llvm.lifetime.end.p0(i64 4, ptr %3) #10
  ret float %5
}

; Function Attrs: inlinehint nounwind uwtable
define internal i32 @fp32_to_bits(float noundef %0) #3 {
  %2 = alloca float, align 4
  %3 = alloca %union.anon.10, align 4
  store float %0, ptr %2, align 4, !tbaa !13
  call void @llvm.lifetime.start.p0(i64 4, ptr %3) #10
  %4 = load float, ptr %2, align 4, !tbaa !13
  store float %4, ptr %3, align 4, !tbaa !20
  %5 = load i32, ptr %3, align 4, !tbaa !20
  call void @llvm.lifetime.end.p0(i64 4, ptr %3) #10
  ret i32 %5
}

; Function Attrs: inlinehint nounwind uwtable
define internal zeroext i16 @ggml_compute_fp32_to_fp16(float noundef %0) #3 {
  %2 = alloca float, align 4
  %3 = alloca float, align 4
  %4 = alloca float, align 4
  %5 = alloca float, align 4
  %6 = alloca i32, align 4
  %7 = alloca i32, align 4
  %8 = alloca i32, align 4
  %9 = alloca i32, align 4
  %10 = alloca i32, align 4
  %11 = alloca i32, align 4
  %12 = alloca i32, align 4
  %13 = alloca i32, align 4
  store float %0, ptr %2, align 4, !tbaa !13
  call void @llvm.lifetime.start.p0(i64 4, ptr %3) #10
  store float 0x46F0000000000000, ptr %3, align 4, !tbaa !13
  call void @llvm.lifetime.start.p0(i64 4, ptr %4) #10
  store float 0x3910000000000000, ptr %4, align 4, !tbaa !13
  call void @llvm.lifetime.start.p0(i64 4, ptr %5) #10
  %14 = load float, ptr %2, align 4, !tbaa !13
  %15 = call float @llvm.fabs.f32(float %14)
  %16 = fmul float %15, 0x46F0000000000000
  %17 = fmul float %16, 0x3910000000000000
  store float %17, ptr %5, align 4, !tbaa !13
  call void @llvm.lifetime.start.p0(i64 4, ptr %6) #10
  %18 = load float, ptr %2, align 4, !tbaa !13
  %19 = call i32 @fp32_to_bits(float noundef %18)
  store i32 %19, ptr %6, align 4, !tbaa !11
  call void @llvm.lifetime.start.p0(i64 4, ptr %7) #10
  %20 = load i32, ptr %6, align 4, !tbaa !11
  %21 = load i32, ptr %6, align 4, !tbaa !11
  %22 = add i32 %20, %21
  store i32 %22, ptr %7, align 4, !tbaa !11
  call void @llvm.lifetime.start.p0(i64 4, ptr %8) #10
  %23 = load i32, ptr %6, align 4, !tbaa !11
  %24 = and i32 %23, -2147483648
  store i32 %24, ptr %8, align 4, !tbaa !11
  call void @llvm.lifetime.start.p0(i64 4, ptr %9) #10
  %25 = load i32, ptr %7, align 4, !tbaa !11
  %26 = and i32 %25, -16777216
  store i32 %26, ptr %9, align 4, !tbaa !11
  %27 = load i32, ptr %9, align 4, !tbaa !11
  %28 = icmp ult i32 %27, 1895825408
  br i1 %28, label %29, label %30

29:                                               ; preds = %1
  store i32 1895825408, ptr %9, align 4, !tbaa !11
  br label %30

30:                                               ; preds = %29, %1
  %31 = load i32, ptr %9, align 4, !tbaa !11
  %32 = lshr i32 %31, 1
  %33 = add i32 %32, 125829120
  %34 = call float @fp32_from_bits(i32 noundef %33)
  %35 = load float, ptr %5, align 4, !tbaa !13
  %36 = fadd float %34, %35
  store float %36, ptr %5, align 4, !tbaa !13
  call void @llvm.lifetime.start.p0(i64 4, ptr %10) #10
  %37 = load float, ptr %5, align 4, !tbaa !13
  %38 = call i32 @fp32_to_bits(float noundef %37)
  store i32 %38, ptr %10, align 4, !tbaa !11
  call void @llvm.lifetime.start.p0(i64 4, ptr %11) #10
  %39 = load i32, ptr %10, align 4, !tbaa !11
  %40 = lshr i32 %39, 13
  %41 = and i32 %40, 31744
  store i32 %41, ptr %11, align 4, !tbaa !11
  call void @llvm.lifetime.start.p0(i64 4, ptr %12) #10
  %42 = load i32, ptr %10, align 4, !tbaa !11
  %43 = and i32 %42, 4095
  store i32 %43, ptr %12, align 4, !tbaa !11
  call void @llvm.lifetime.start.p0(i64 4, ptr %13) #10
  %44 = load i32, ptr %11, align 4, !tbaa !11
  %45 = load i32, ptr %12, align 4, !tbaa !11
  %46 = add i32 %44, %45
  store i32 %46, ptr %13, align 4, !tbaa !11
  %47 = load i32, ptr %8, align 4, !tbaa !11
  %48 = lshr i32 %47, 16
  %49 = load i32, ptr %7, align 4, !tbaa !11
  %50 = icmp ugt i32 %49, -16777216
  br i1 %50, label %51, label %52

51:                                               ; preds = %30
  br label %54

52:                                               ; preds = %30
  %53 = load i32, ptr %13, align 4, !tbaa !11
  br label %54

54:                                               ; preds = %52, %51
  %55 = phi i32 [ 32256, %51 ], [ %53, %52 ]
  %56 = or i32 %48, %55
  %57 = trunc i32 %56 to i16
  call void @llvm.lifetime.end.p0(i64 4, ptr %13) #10
  call void @llvm.lifetime.end.p0(i64 4, ptr %12) #10
  call void @llvm.lifetime.end.p0(i64 4, ptr %11) #10
  call void @llvm.lifetime.end.p0(i64 4, ptr %10) #10
  call void @llvm.lifetime.end.p0(i64 4, ptr %9) #10
  call void @llvm.lifetime.end.p0(i64 4, ptr %8) #10
  call void @llvm.lifetime.end.p0(i64 4, ptr %7) #10
  call void @llvm.lifetime.end.p0(i64 4, ptr %6) #10
  call void @llvm.lifetime.end.p0(i64 4, ptr %5) #10
  call void @llvm.lifetime.end.p0(i64 4, ptr %4) #10
  call void @llvm.lifetime.end.p0(i64 4, ptr %3) #10
  ret i16 %57
}

; Function Attrs: nounwind uwtable
define void @quantize_row_q5_0_ref(ptr noalias noundef %0, ptr noalias noundef %1, i64 noundef %2) #0 {
  %4 = alloca ptr, align 8
  %5 = alloca ptr, align 8
  %6 = alloca i64, align 8
  %7 = alloca i32, align 4
  %8 = alloca i32, align 4
  %9 = alloca i32, align 4
  %10 = alloca float, align 4
  %11 = alloca float, align 4
  %12 = alloca i32, align 4
  %13 = alloca float, align 4
  %14 = alloca float, align 4
  %15 = alloca float, align 4
  %16 = alloca i32, align 4
  %17 = alloca i32, align 4
  %18 = alloca float, align 4
  %19 = alloca float, align 4
  %20 = alloca i8, align 1
  %21 = alloca i8, align 1
  store ptr %0, ptr %4, align 8, !tbaa !3
  store ptr %1, ptr %5, align 8, !tbaa !8
  store i64 %2, ptr %6, align 8, !tbaa !9
  call void @llvm.lifetime.start.p0(i64 4, ptr %7) #10
  %22 = load i64, ptr %6, align 8, !tbaa !9
  %23 = sdiv i64 %22, 32
  %24 = trunc i64 %23 to i32
  store i32 %24, ptr %7, align 4, !tbaa !11
  call void @llvm.lifetime.start.p0(i64 4, ptr %8) #10
  store i32 0, ptr %8, align 4, !tbaa !11
  br label %25

25:                                               ; preds = %173, %3
  %26 = load i32, ptr %8, align 4, !tbaa !11
  %27 = load i32, ptr %7, align 4, !tbaa !11
  %28 = icmp slt i32 %26, %27
  br i1 %28, label %30, label %29

29:                                               ; preds = %25
  store i32 2, ptr %9, align 4
  call void @llvm.lifetime.end.p0(i64 4, ptr %8) #10
  br label %176

30:                                               ; preds = %25
  call void @llvm.lifetime.start.p0(i64 4, ptr %10) #10
  store float 0.000000e+00, ptr %10, align 4, !tbaa !13
  call void @llvm.lifetime.start.p0(i64 4, ptr %11) #10
  store float 0.000000e+00, ptr %11, align 4, !tbaa !13
  call void @llvm.lifetime.start.p0(i64 4, ptr %12) #10
  store i32 0, ptr %12, align 4, !tbaa !11
  br label %31

31:                                               ; preds = %53, %30
  %32 = load i32, ptr %12, align 4, !tbaa !11
  %33 = icmp slt i32 %32, 32
  br i1 %33, label %35, label %34

34:                                               ; preds = %31
  store i32 5, ptr %9, align 4
  call void @llvm.lifetime.end.p0(i64 4, ptr %12) #10
  br label %56

35:                                               ; preds = %31
  call void @llvm.lifetime.start.p0(i64 4, ptr %13) #10
  %36 = load ptr, ptr %4, align 8, !tbaa !3
  %37 = load i32, ptr %8, align 4, !tbaa !11
  %38 = mul nsw i32 %37, 32
  %39 = load i32, ptr %12, align 4, !tbaa !11
  %40 = add nsw i32 %38, %39
  %41 = sext i32 %40 to i64
  %42 = getelementptr inbounds float, ptr %36, i64 %41
  %43 = load float, ptr %42, align 4, !tbaa !13
  store float %43, ptr %13, align 4, !tbaa !13
  %44 = load float, ptr %10, align 4, !tbaa !13
  %45 = load float, ptr %13, align 4, !tbaa !13
  %46 = call float @llvm.fabs.f32(float %45)
  %47 = fcmp olt float %44, %46
  br i1 %47, label %48, label %52

48:                                               ; preds = %35
  %49 = load float, ptr %13, align 4, !tbaa !13
  %50 = call float @llvm.fabs.f32(float %49)
  store float %50, ptr %10, align 4, !tbaa !13
  %51 = load float, ptr %13, align 4, !tbaa !13
  store float %51, ptr %11, align 4, !tbaa !13
  br label %52

52:                                               ; preds = %48, %35
  call void @llvm.lifetime.end.p0(i64 4, ptr %13) #10
  br label %53

53:                                               ; preds = %52
  %54 = load i32, ptr %12, align 4, !tbaa !11
  %55 = add nsw i32 %54, 1
  store i32 %55, ptr %12, align 4, !tbaa !11
  br label %31, !llvm.loop !26

56:                                               ; preds = %34
  call void @llvm.lifetime.start.p0(i64 4, ptr %14) #10
  %57 = load float, ptr %11, align 4, !tbaa !13
  %58 = fdiv float %57, -1.600000e+01
  store float %58, ptr %14, align 4, !tbaa !13
  call void @llvm.lifetime.start.p0(i64 4, ptr %15) #10
  %59 = load float, ptr %14, align 4, !tbaa !13
  %60 = fcmp une float %59, 0.000000e+00
  br i1 %60, label %61, label %64

61:                                               ; preds = %56
  %62 = load float, ptr %14, align 4, !tbaa !13
  %63 = fdiv float 1.000000e+00, %62
  br label %65

64:                                               ; preds = %56
  br label %65

65:                                               ; preds = %64, %61
  %66 = phi float [ %63, %61 ], [ 0.000000e+00, %64 ]
  store float %66, ptr %15, align 4, !tbaa !13
  %67 = load float, ptr %14, align 4, !tbaa !13
  %68 = call zeroext i16 @ggml_compute_fp32_to_fp16(float noundef %67)
  %69 = load ptr, ptr %5, align 8, !tbaa !8
  %70 = load i32, ptr %8, align 4, !tbaa !11
  %71 = sext i32 %70 to i64
  %72 = getelementptr inbounds %struct.block_q5_0, ptr %69, i64 %71
  %73 = getelementptr inbounds nuw %struct.block_q5_0, ptr %72, i32 0, i32 0
  store i16 %68, ptr %73, align 2, !tbaa !27
  call void @llvm.lifetime.start.p0(i64 4, ptr %16) #10
  store i32 0, ptr %16, align 4, !tbaa !11
  call void @llvm.lifetime.start.p0(i64 4, ptr %17) #10
  store i32 0, ptr %17, align 4, !tbaa !11
  br label %74

74:                                               ; preds = %164, %65
  %75 = load i32, ptr %17, align 4, !tbaa !11
  %76 = icmp slt i32 %75, 16
  br i1 %76, label %78, label %77

77:                                               ; preds = %74
  store i32 8, ptr %9, align 4
  call void @llvm.lifetime.end.p0(i64 4, ptr %17) #10
  br label %167

78:                                               ; preds = %74
  call void @llvm.lifetime.start.p0(i64 4, ptr %18) #10
  %79 = load ptr, ptr %4, align 8, !tbaa !3
  %80 = load i32, ptr %8, align 4, !tbaa !11
  %81 = mul nsw i32 %80, 32
  %82 = add nsw i32 %81, 0
  %83 = load i32, ptr %17, align 4, !tbaa !11
  %84 = add nsw i32 %82, %83
  %85 = sext i32 %84 to i64
  %86 = getelementptr inbounds float, ptr %79, i64 %85
  %87 = load float, ptr %86, align 4, !tbaa !13
  %88 = load float, ptr %15, align 4, !tbaa !13
  %89 = fmul float %87, %88
  store float %89, ptr %18, align 4, !tbaa !13
  call void @llvm.lifetime.start.p0(i64 4, ptr %19) #10
  %90 = load ptr, ptr %4, align 8, !tbaa !3
  %91 = load i32, ptr %8, align 4, !tbaa !11
  %92 = mul nsw i32 %91, 32
  %93 = add nsw i32 %92, 16
  %94 = load i32, ptr %17, align 4, !tbaa !11
  %95 = add nsw i32 %93, %94
  %96 = sext i32 %95 to i64
  %97 = getelementptr inbounds float, ptr %90, i64 %96
  %98 = load float, ptr %97, align 4, !tbaa !13
  %99 = load float, ptr %15, align 4, !tbaa !13
  %100 = fmul float %98, %99
  store float %100, ptr %19, align 4, !tbaa !13
  call void @llvm.lifetime.start.p0(i64 1, ptr %20) #10
  %101 = load float, ptr %18, align 4, !tbaa !13
  %102 = fadd float %101, 1.650000e+01
  %103 = fptosi float %102 to i8
  %104 = sext i8 %103 to i32
  %105 = icmp slt i32 31, %104
  br i1 %105, label %106, label %107

106:                                              ; preds = %78
  br label %112

107:                                              ; preds = %78
  %108 = load float, ptr %18, align 4, !tbaa !13
  %109 = fadd float %108, 1.650000e+01
  %110 = fptosi float %109 to i8
  %111 = sext i8 %110 to i32
  br label %112

112:                                              ; preds = %107, %106
  %113 = phi i32 [ 31, %106 ], [ %111, %107 ]
  %114 = trunc i32 %113 to i8
  store i8 %114, ptr %20, align 1, !tbaa !20
  call void @llvm.lifetime.start.p0(i64 1, ptr %21) #10
  %115 = load float, ptr %19, align 4, !tbaa !13
  %116 = fadd float %115, 1.650000e+01
  %117 = fptosi float %116 to i8
  %118 = sext i8 %117 to i32
  %119 = icmp slt i32 31, %118
  br i1 %119, label %120, label %121

120:                                              ; preds = %112
  br label %126

121:                                              ; preds = %112
  %122 = load float, ptr %19, align 4, !tbaa !13
  %123 = fadd float %122, 1.650000e+01
  %124 = fptosi float %123 to i8
  %125 = sext i8 %124 to i32
  br label %126

126:                                              ; preds = %121, %120
  %127 = phi i32 [ 31, %120 ], [ %125, %121 ]
  %128 = trunc i32 %127 to i8
  store i8 %128, ptr %21, align 1, !tbaa !20
  %129 = load i8, ptr %20, align 1, !tbaa !20
  %130 = zext i8 %129 to i32
  %131 = and i32 %130, 15
  %132 = load i8, ptr %21, align 1, !tbaa !20
  %133 = zext i8 %132 to i32
  %134 = and i32 %133, 15
  %135 = shl i32 %134, 4
  %136 = or i32 %131, %135
  %137 = trunc i32 %136 to i8
  %138 = load ptr, ptr %5, align 8, !tbaa !8
  %139 = load i32, ptr %8, align 4, !tbaa !11
  %140 = sext i32 %139 to i64
  %141 = getelementptr inbounds %struct.block_q5_0, ptr %138, i64 %140
  %142 = getelementptr inbounds nuw %struct.block_q5_0, ptr %141, i32 0, i32 2
  %143 = load i32, ptr %17, align 4, !tbaa !11
  %144 = sext i32 %143 to i64
  %145 = getelementptr inbounds [16 x i8], ptr %142, i64 0, i64 %144
  store i8 %137, ptr %145, align 1, !tbaa !20
  %146 = load i8, ptr %20, align 1, !tbaa !20
  %147 = zext i8 %146 to i32
  %148 = and i32 %147, 16
  %149 = lshr i32 %148, 4
  %150 = load i32, ptr %17, align 4, !tbaa !11
  %151 = add nsw i32 %150, 0
  %152 = shl i32 %149, %151
  %153 = load i32, ptr %16, align 4, !tbaa !11
  %154 = or i32 %153, %152
  store i32 %154, ptr %16, align 4, !tbaa !11
  %155 = load i8, ptr %21, align 1, !tbaa !20
  %156 = zext i8 %155 to i32
  %157 = and i32 %156, 16
  %158 = lshr i32 %157, 4
  %159 = load i32, ptr %17, align 4, !tbaa !11
  %160 = add nsw i32 %159, 16
  %161 = shl i32 %158, %160
  %162 = load i32, ptr %16, align 4, !tbaa !11
  %163 = or i32 %162, %161
  store i32 %163, ptr %16, align 4, !tbaa !11
  call void @llvm.lifetime.end.p0(i64 1, ptr %21) #10
  call void @llvm.lifetime.end.p0(i64 1, ptr %20) #10
  call void @llvm.lifetime.end.p0(i64 4, ptr %19) #10
  call void @llvm.lifetime.end.p0(i64 4, ptr %18) #10
  br label %164

164:                                              ; preds = %126
  %165 = load i32, ptr %17, align 4, !tbaa !11
  %166 = add nsw i32 %165, 1
  store i32 %166, ptr %17, align 4, !tbaa !11
  br label %74, !llvm.loop !29

167:                                              ; preds = %77
  %168 = load ptr, ptr %5, align 8, !tbaa !8
  %169 = load i32, ptr %8, align 4, !tbaa !11
  %170 = sext i32 %169 to i64
  %171 = getelementptr inbounds %struct.block_q5_0, ptr %168, i64 %170
  %172 = getelementptr inbounds nuw %struct.block_q5_0, ptr %171, i32 0, i32 1
  call void @llvm.memcpy.p0.p0.i64(ptr align 2 %172, ptr align 4 %16, i64 4, i1 false)
  call void @llvm.lifetime.end.p0(i64 4, ptr %16) #10
  call void @llvm.lifetime.end.p0(i64 4, ptr %15) #10
  call void @llvm.lifetime.end.p0(i64 4, ptr %14) #10
  call void @llvm.lifetime.end.p0(i64 4, ptr %11) #10
  call void @llvm.lifetime.end.p0(i64 4, ptr %10) #10
  br label %173

173:                                              ; preds = %167
  %174 = load i32, ptr %8, align 4, !tbaa !11
  %175 = add nsw i32 %174, 1
  store i32 %175, ptr %8, align 4, !tbaa !11
  br label %25, !llvm.loop !30

176:                                              ; preds = %29
  call void @llvm.lifetime.end.p0(i64 4, ptr %7) #10
  ret void
}