; Function Attrs: nofree norecurse nosync nounwind memory(argmem: readwrite) uwtable
define void @quantize_row_q5_0_ref(ptr noalias noundef readonly captures(none) %0, ptr noalias noundef writeonly captures(none) %1, i64 noundef %2) local_unnamed_addr #0 {
  %4 = sdiv i64 %2, 32
  %5 = trunc i64 %4 to i32
  %6 = icmp sgt i32 %5, 0
  br i1 %6, label %.preheader.preheader, label %._crit_edge

.preheader.preheader:                             ; preds = %3
  %wide.trip.count = and i64 %4, 2147483647
  br label %.preheader

.preheader:                                       ; preds = %.preheader.preheader, %40
  %indvars.iv63 = phi i64 [ 0, %.preheader.preheader ], [ %indvars.iv.next64, %40 ]
  %7 = shl nsw i64 %indvars.iv63, 5
  %invariant.gep = getelementptr inbounds nuw float, ptr %0, i64 %7
  br label %36

._crit_edge:                                      ; preds = %40, %3
  ret void

8:                                                ; preds = %36
  %9 = fmul float %.147, -6.250000e-02
  %10 = fcmp une float %9, 0.000000e+00
  %11 = fdiv float 1.000000e+00, %9
  %12 = select i1 %10, float %11, float 0.000000e+00
  %13 = tail call float @llvm.fabs.f32(float %9)
  %14 = fmul float %13, 0x46F0000000000000
  %15 = fmul float %14, 0x3910000000000000
  %16 = bitcast float %9 to i32
  %17 = shl i32 %16, 1
  %18 = tail call i32 @llvm.umax.i32(i32 %17, i32 1895825408)
  %spec.store.select.i = lshr exact i32 %18, 1
  %19 = and i32 %spec.store.select.i, 2139095040
  %20 = add nuw i32 %19, 125829120
  %21 = bitcast i32 %20 to float
  %22 = fadd float %15, %21
  %23 = bitcast float %22 to i32
  %24 = lshr i32 %23, 13
  %25 = and i32 %24, 31744
  %26 = and i32 %23, 4095
  %27 = add nuw nsw i32 %25, %26
  %28 = lshr i32 %16, 16
  %29 = and i32 %28, 32768
  %30 = icmp ugt i32 %17, -16777216
  %31 = select i1 %30, i32 32256, i32 %27
  %32 = or i32 %31, %29
  %33 = trunc nuw i32 %32 to i16
  %34 = getelementptr inbounds nuw %struct.block_q5_0, ptr %1, i64 %indvars.iv63
  store i16 %33, ptr %34, align 2, !tbaa !18
  %35 = getelementptr inbounds nuw i8, ptr %34, i64 6
  br label %42

36:                                               ; preds = %.preheader, %36
  %indvars.iv = phi i64 [ 0, %.preheader ], [ %indvars.iv.next, %36 ]
  %.04554 = phi float [ 0.000000e+00, %.preheader ], [ %.1, %36 ]
  %.04653 = phi float [ 0.000000e+00, %.preheader ], [ %.147, %36 ]
  %gep = getelementptr inbounds nuw float, ptr %invariant.gep, i64 %indvars.iv
  %37 = load float, ptr %gep, align 4, !tbaa !8
  %38 = tail call float @llvm.fabs.f32(float %37)
  %39 = fcmp olt float %.04554, %38
  %.147 = select i1 %39, float %37, float %.04653
  %.1 = select i1 %39, float %38, float %.04554
  %indvars.iv.next = add nuw nsw i64 %indvars.iv, 1
  %exitcond.not = icmp eq i64 %indvars.iv.next, 32
  br i1 %exitcond.not, label %8, label %36, !llvm.loop !20

40:                                               ; preds = %42
  %41 = getelementptr inbounds nuw i8, ptr %34, i64 2
  store i32 %73, ptr %41, align 2
  %indvars.iv.next64 = add nuw nsw i64 %indvars.iv63, 1
  %exitcond66.not = icmp eq i64 %indvars.iv.next64, %wide.trip.count
  br i1 %exitcond66.not, label %._crit_edge, label %.preheader, !llvm.loop !21

42:                                               ; preds = %8, %42
  %indvars.iv59 = phi i64 [ 0, %8 ], [ %indvars.iv.next60, %42 ]
  %.04955 = phi i32 [ 0, %8 ], [ %73, %42 ]
  %43 = add nuw nsw i64 %indvars.iv59, %7
  %44 = getelementptr inbounds nuw float, ptr %0, i64 %43
  %45 = load float, ptr %44, align 4, !tbaa !8
  %46 = fmul float %12, %45
  %47 = or disjoint i64 %43, 16
  %48 = getelementptr inbounds nuw float, ptr %0, i64 %47
  %49 = load float, ptr %48, align 4, !tbaa !8
  %50 = fmul float %12, %49
  %51 = fadd float %46, 1.650000e+01
  %52 = fptosi float %51 to i8
  %53 = tail call i8 @llvm.smin.i8(i8 %52, i8 31)
  %54 = fadd float %50, 1.650000e+01
  %55 = fptosi float %54 to i8
  %56 = tail call i8 @llvm.smin.i8(i8 %55, i8 31)
  %57 = and i8 %53, 15
  %58 = shl i8 %56, 4
  %59 = or disjoint i8 %58, %57
  %60 = getelementptr inbounds nuw [16 x i8], ptr %35, i64 0, i64 %indvars.iv59
  store i8 %59, ptr %60, align 1, !tbaa !13
  %61 = lshr i8 %53, 4
  %62 = and i8 %61, 1
  %63 = zext nneg i8 %62 to i32
  %64 = trunc nuw nsw i64 %indvars.iv59 to i32
  %65 = shl nuw nsw i32 %63, %64
  %66 = lshr i8 %56, 4
  %67 = and i8 %66, 1
  %68 = zext nneg i8 %67 to i32
  %69 = trunc i64 %indvars.iv59 to i32
  %70 = add i32 %69, 16
  %71 = shl nuw i32 %68, %70
  %72 = add nuw nsw i32 %71, %65
  %73 = or i32 %72, %.04955
  %indvars.iv.next60 = add nuw nsw i64 %indvars.iv59, 1
  %exitcond62.not = icmp eq i64 %indvars.iv.next60, 16
  br i1 %exitcond62.not, label %40, label %42, !llvm.loop !22
}